; Function Attrs: mustprogress uwtable
define internal void @_ZL19pipeline_reverse_4dR8PJ_COORDP8PJconsts(ptr noundef nonnull align 8 dereferenceable(32) %0, ptr noundef readonly captures(none) %1) #0 {
  %3 = getelementptr inbounds nuw i8, ptr %1, i64 88
  %4 = load ptr, ptr %3, align 8, !tbaa !77
  %5 = getelementptr inbounds nuw i8, ptr %4, i64 16
  %6 = getelementptr i8, ptr %4, i64 24
  %.val = load ptr, ptr %6, align 8, !tbaa !120
  %.val1016 = load ptr, ptr %5, align 8, !tbaa !120
  %.not1517 = icmp eq ptr %.val, %.val1016
  br i1 %.not1517, label %._crit_edge, label %.lr.ph

.lr.ph:                                           ; preds = %2, %.critedge
  %.val1020 = phi ptr [ %.val10, %.critedge ], [ %.val1016, %2 ]
  %.sroa.014.018 = phi ptr [ %7, %.critedge ], [ %.val, %2 ]
  %7 = getelementptr inbounds i8, ptr %.sroa.014.018, i64 -16
  %8 = getelementptr inbounds i8, ptr %.sroa.014.018, i64 -7
  %9 = load i8, ptr %8, align 1, !tbaa !112, !range !115, !noundef !116
  %10 = trunc nuw i8 %9 to i1
  br i1 %10, label %.critedge, label %11

11:                                               ; preds = %.lr.ph
  %12 = load ptr, ptr %7, align 8, !tbaa !109
  %13 = getelementptr inbounds nuw i8, ptr %12, i64 96
  %14 = load i32, ptr %13, align 8, !tbaa !105
  %.not = icmp eq i32 %14, 0
  br i1 %.not, label %17, label %15

15:                                               ; preds = %11
  %16 = tail call noundef zeroext i1 @_Z8pj_fwd4dR8PJ_COORDP8PJconsts(ptr noundef nonnull align 8 dereferenceable(32) %0, ptr noundef nonnull %12)
  br label %19

17:                                               ; preds = %11
  %18 = tail call noundef zeroext i1 @_Z8pj_inv4dR8PJ_COORDP8PJconsts(ptr noundef nonnull align 8 dereferenceable(32) %0, ptr noundef nonnull %12)
  br label %19

19:                                               ; preds = %17, %15
  %20 = load double, ptr %0, align 8, !tbaa !79
  %21 = fcmp oeq double %20, 0x7FF0000000000000
  br i1 %21, label %._crit_edge, label %..critedge_crit_edge

..critedge_crit_edge:                             ; preds = %19
  %.val10.pre = load ptr, ptr %5, align 8, !tbaa !120
  br label %.critedge

.critedge:                                        ; preds = %..critedge_crit_edge, %.lr.ph
  %.val10 = phi ptr [ %.val10.pre, %..critedge_crit_edge ], [ %.val1020, %.lr.ph ]
  %.not15 = icmp eq ptr %7, %.val10
  br i1 %.not15, label %._crit_edge, label %.lr.ph, !llvm.loop !134

._crit_edge:                                      ; preds = %.critedge, %19, %2
  ret void
}